#include <math.h>
#include <stdio.h>
#include <stdlib.h>
#include <string.h>
#include <iostream>
using namespace std;

int main()
{
  char str[100],tru[100];
  int i,j,t,counter;
  cin.getline(str,100);
  for(i=0,t=0;str[i]!='\0';i++,t++)
  {
    if(str[i]!=' ')
		tru[t]=str[i];
	else
	{   counter=0;
	    if(str[i+1]!=' ')
		    tru[t]=str[i];
		else
		{ 
		    for(j=i;str[j]==' ';j++)
			  counter++;
			tru[t]=str[i];
			i=i+counter-1;
		}
	}
  }
  tru[t]='\0';
  cout<<tru;
}